target datalayout = "e-m:e-p270:32:32-p271:32:32-p272:64:64-i64:64-i128:128-f80:128-n8:16:32:64-S128"
target triple = "x86_64-pc-linux-gnu"

%"struct.faiss::(anonymous namespace)::QuantizerTemplate" = type { %"struct.faiss::ScalarQuantizer::SQuantizer", i64, ptr, ptr }
%"struct.faiss::ScalarQuantizer::SQuantizer" = type { ptr }
%"struct.faiss::ScalarQuantizer::SQDistanceComputer" = type { %"struct.faiss::FlatCodesDistanceComputer", ptr }
%"struct.faiss::FlatCodesDistanceComputer" = type { %"struct.faiss::DistanceComputer", ptr, i64 }
%"struct.faiss::DistanceComputer" = type { ptr }
%"struct.faiss::(anonymous namespace)::DCTemplate.22" = type { %"struct.faiss::ScalarQuantizer::SQDistanceComputer", %"struct.faiss::(anonymous namespace)::QuantizerTemplate" }
%"struct.faiss::(anonymous namespace)::SimilarityIP" = type <{ ptr, ptr, float, [4 x i8] }>
%"struct.faiss::InvertedListScanner" = type { ptr, i64, i8, i8, ptr, i64 }
%"struct.faiss::(anonymous namespace)::IVFSQScannerIP.57" = type { %"struct.faiss::InvertedListScanner", %"struct.faiss::(anonymous namespace)::DCTemplate.22", i8, float }

; Function Attrs: mustprogress nounwind uwtable
define internal void @_ZN5faiss12_GLOBAL__N_112SimilarityIPILi1EEC2EPKf(ptr noundef nonnull align 8 dereferenceable(20) %0, ptr noundef %1) unnamed_addr #1 align 2 {
  %3 = alloca ptr, align 8
  %4 = alloca ptr, align 8
  store ptr %0, ptr %3, align 8
  store ptr %1, ptr %4, align 8
  %5 = load ptr, ptr %3, align 8
  %6 = getelementptr inbounds %"struct.faiss::(anonymous namespace)::SimilarityIP", ptr %5, i32 0, i32 0
  %7 = load ptr, ptr %4, align 8
  store ptr %7, ptr %6, align 8
  ret void
}

; Function Attrs: mustprogress uwtable
define internal noundef float @_ZNK5faiss12_GLOBAL__N_110DCTemplateINS0_17QuantizerTemplateINS0_9Codec8bitELb0ELi1EEENS0_12SimilarityIPILi1EEELi1EE16compute_distanceEPKfPKh(ptr noundef nonnull align 8 dereferenceable(64) %0, ptr noundef %1, ptr noundef %2) #0 align 2 {
  %4 = alloca ptr, align 8
  %5 = alloca float, align 4
  %6 = alloca ptr, align 8
  %7 = alloca ptr, align 8
  %8 = alloca ptr, align 8
  %9 = alloca i32, align 4
  %10 = alloca ptr, align 8
  %11 = alloca ptr, align 8
  %12 = alloca i32, align 4
  %13 = alloca float, align 4
  %14 = alloca ptr, align 8
  %15 = alloca ptr, align 8
  %16 = alloca ptr, align 8
  %17 = alloca %"struct.faiss::(anonymous namespace)::SimilarityIP", align 8
  %18 = alloca i64, align 8
  %19 = alloca float, align 4
  store ptr %0, ptr %14, align 8
  store ptr %1, ptr %15, align 8
  store ptr %2, ptr %16, align 8
  %20 = load ptr, ptr %14, align 8
  %21 = load ptr, ptr %15, align 8
  call void @_ZN5faiss12_GLOBAL__N_112SimilarityIPILi1EEC2EPKf(ptr noundef nonnull align 8 dereferenceable(20) %17, ptr noundef %21)
  store ptr %17, ptr %7, align 8
  %22 = load ptr, ptr %7, align 8
  %23 = getelementptr inbounds %"struct.faiss::(anonymous namespace)::SimilarityIP", ptr %22, i32 0, i32 2
  store float 0.000000e+00, ptr %23, align 8
  %24 = load ptr, ptr %22, align 8
  %25 = getelementptr inbounds %"struct.faiss::(anonymous namespace)::SimilarityIP", ptr %22, i32 0, i32 1
  store ptr %24, ptr %25, align 8
  store i64 0, ptr %18, align 8
  br label %26

26:                                               ; preds = %73, %3
  %27 = load i64, ptr %18, align 8
  %28 = getelementptr inbounds %"struct.faiss::(anonymous namespace)::DCTemplate.22", ptr %20, i32 0, i32 1
  %29 = getelementptr inbounds %"struct.faiss::(anonymous namespace)::QuantizerTemplate", ptr %28, i32 0, i32 1
  %30 = load i64, ptr %29, align 8
  %31 = icmp ult i64 %27, %30
  br i1 %31, label %32, label %76

32:                                               ; preds = %26
  %33 = getelementptr inbounds %"struct.faiss::(anonymous namespace)::DCTemplate.22", ptr %20, i32 0, i32 1
  %34 = load ptr, ptr %16, align 8
  %35 = load i64, ptr %18, align 8
  %36 = trunc i64 %35 to i32
  store ptr %33, ptr %10, align 8
  store ptr %34, ptr %11, align 8
  store i32 %36, ptr %12, align 4
  %37 = load ptr, ptr %10, align 8
  %38 = load ptr, ptr %11, align 8
  %39 = load i32, ptr %12, align 4
  store ptr %38, ptr %8, align 8
  store i32 %39, ptr %9, align 4
  %40 = load ptr, ptr %8, align 8
  %41 = load i32, ptr %9, align 4
  %42 = sext i32 %41 to i64
  %43 = getelementptr inbounds i8, ptr %40, i64 %42
  %44 = load i8, ptr %43, align 1
  %45 = zext i8 %44 to i32
  %46 = sitofp i32 %45 to float
  %47 = fadd float %46, 5.000000e-01
  %48 = fdiv float %47, 2.550000e+02
  store float %48, ptr %13, align 4
  %49 = getelementptr inbounds %"struct.faiss::(anonymous namespace)::QuantizerTemplate", ptr %37, i32 0, i32 2
  %50 = load ptr, ptr %49, align 8
  %51 = load i32, ptr %12, align 4
  %52 = sext i32 %51 to i64
  %53 = getelementptr inbounds float, ptr %50, i64 %52
  %54 = load float, ptr %53, align 4
  %55 = load float, ptr %13, align 4
  %56 = getelementptr inbounds %"struct.faiss::(anonymous namespace)::QuantizerTemplate", ptr %37, i32 0, i32 3
  %57 = load ptr, ptr %56, align 8
  %58 = load i32, ptr %12, align 4
  %59 = sext i32 %58 to i64
  %60 = getelementptr inbounds float, ptr %57, i64 %59
  %61 = load float, ptr %60, align 4
  %62 = call noundef float @llvm.fmuladd.f32(float %55, float %61, float %54)
  store float %62, ptr %19, align 4
  %63 = load float, ptr %19, align 4
  store ptr %17, ptr %4, align 8
  store float %63, ptr %5, align 4
  %64 = load ptr, ptr %4, align 8
  %65 = getelementptr inbounds %"struct.faiss::(anonymous namespace)::SimilarityIP", ptr %64, i32 0, i32 1
  %66 = load ptr, ptr %65, align 8
  %67 = getelementptr inbounds float, ptr %66, i32 1
  store ptr %67, ptr %65, align 8
  %68 = load float, ptr %66, align 4
  %69 = load float, ptr %5, align 4
  %70 = getelementptr inbounds %"struct.faiss::(anonymous namespace)::SimilarityIP", ptr %64, i32 0, i32 2
  %71 = load float, ptr %70, align 8
  %72 = call float @llvm.fmuladd.f32(float %68, float %69, float %71)
  store float %72, ptr %70, align 8
  br label %73

73:                                               ; preds = %32
  %74 = load i64, ptr %18, align 8
  %75 = add i64 %74, 1
  store i64 %75, ptr %18, align 8
  br label %26, !llvm.loop !66

76:                                               ; preds = %26
  store ptr %17, ptr %6, align 8
  %77 = load ptr, ptr %6, align 8
  %78 = getelementptr inbounds %"struct.faiss::(anonymous namespace)::SimilarityIP", ptr %77, i32 0, i32 2
  %79 = load float, ptr %78, align 8
  ret float %79
}

; Function Attrs: mustprogress uwtable
define internal noundef float @_ZNK5faiss12_GLOBAL__N_110DCTemplateINS0_17QuantizerTemplateINS0_9Codec8bitELb0ELi1EEENS0_12SimilarityIPILi1EEELi1EE13query_to_codeEPKh(ptr noundef nonnull align 8 dereferenceable(64) %0, ptr noundef %1) unnamed_addr #0 align 2 {
  %3 = alloca ptr, align 8
  %4 = alloca ptr, align 8
  store ptr %0, ptr %3, align 8
  store ptr %1, ptr %4, align 8
  %5 = load ptr, ptr %3, align 8
  %6 = getelementptr inbounds %"struct.faiss::ScalarQuantizer::SQDistanceComputer", ptr %5, i32 0, i32 1
  %7 = load ptr, ptr %6, align 8
  %8 = load ptr, ptr %4, align 8
  %9 = call noundef float @_ZNK5faiss12_GLOBAL__N_110DCTemplateINS0_17QuantizerTemplateINS0_9Codec8bitELb0ELi1EEENS0_12SimilarityIPILi1EEELi1EE16compute_distanceEPKfPKh(ptr noundef nonnull align 8 dereferenceable(64) %5, ptr noundef %7, ptr noundef %8)
  ret float %9
}

; Function Attrs: mustprogress uwtable
define internal noundef float @_ZNK5faiss12_GLOBAL__N_114IVFSQScannerIPINS0_10DCTemplateINS0_17QuantizerTemplateINS0_9Codec8bitELb0ELi1EEENS0_12SimilarityIPILi1EEELi1EEELi1EE16distance_to_codeEPKh(ptr noundef nonnull align 8 dereferenceable(112) %0, ptr noundef %1) unnamed_addr #0 align 2 {
  %3 = alloca ptr, align 8
  %4 = alloca ptr, align 8
  store ptr %0, ptr %3, align 8
  store ptr %1, ptr %4, align 8
  %5 = load ptr, ptr %3, align 8
  %6 = getelementptr inbounds %"struct.faiss::(anonymous namespace)::IVFSQScannerIP.57", ptr %5, i32 0, i32 3
  %7 = load float, ptr %6, align 4
  %8 = getelementptr inbounds %"struct.faiss::(anonymous namespace)::IVFSQScannerIP.57", ptr %5, i32 0, i32 1
  %9 = load ptr, ptr %4, align 8
  %10 = call noundef float @_ZNK5faiss12_GLOBAL__N_110DCTemplateINS0_17QuantizerTemplateINS0_9Codec8bitELb0ELi1EEENS0_12SimilarityIPILi1EEELi1EE13query_to_codeEPKh(ptr noundef nonnull align 8 dereferenceable(64) %8, ptr noundef %9)
  %11 = fadd float %7, %10
  ret float %11
}