; Function Attrs: mustprogress nofree norecurse nosync nounwind willreturn memory(read, inaccessiblemem: none) uwtable
define internal noundef float @_ZNK5faiss12_GLOBAL__N_114IVFSQScannerIPINS0_10DCTemplateINS0_17QuantizerTemplateINS0_9Codec8bitELb0ELi1EEENS0_12SimilarityIPILi1EEELi1EEELi1EE16distance_to_codeEPKh(ptr nocapture noundef nonnull readonly align 8 dereferenceable(112) %0, ptr nocapture noundef readonly %1) unnamed_addr #20 align 2 {
  %3 = getelementptr inbounds i8, ptr %0, i64 108
  %4 = load float, ptr %3, align 4
  %5 = getelementptr inbounds i8, ptr %0, i64 80
  %6 = load i64, ptr %5, align 8
  %.not.i.i = icmp eq i64 %6, 0
  br i1 %.not.i.i, label %_ZNK5faiss12_GLOBAL__N_110DCTemplateINS0_17QuantizerTemplateINS0_9Codec8bitELb0ELi1EEENS0_12SimilarityIPILi1EEELi1EE13query_to_codeEPKh.exit, label %.lr.ph.i.i

.lr.ph.i.i:                                       ; preds = %2
  %7 = getelementptr inbounds i8, ptr %0, i64 64
  %8 = load ptr, ptr %7, align 8
  %9 = getelementptr inbounds i8, ptr %0, i64 88
  %10 = load ptr, ptr %9, align 8
  %11 = getelementptr inbounds i8, ptr %0, i64 96
  %12 = load ptr, ptr %11, align 8
  br label %13

13:                                               ; preds = %13, %.lr.ph.i.i
  %.021.i.i = phi i64 [ 0, %.lr.ph.i.i ], [ %28, %13 ]
  %.sroa.5.020.i.i = phi float [ 0.000000e+00, %.lr.ph.i.i ], [ %27, %13 ]
  %.sroa.2.019.i.i = phi ptr [ %8, %.lr.ph.i.i ], [ %25, %13 ]
  %sext.i.i = shl i64 %.021.i.i, 32
  %14 = ashr exact i64 %sext.i.i, 32
  %15 = getelementptr inbounds i8, ptr %1, i64 %14
  %16 = load i8, ptr %15, align 1
  %17 = uitofp i8 %16 to float
  %18 = fadd float %17, 5.000000e-01
  %19 = fdiv float %18, 2.550000e+02
  %20 = getelementptr inbounds float, ptr %10, i64 %14
  %21 = load float, ptr %20, align 4
  %22 = getelementptr inbounds float, ptr %12, i64 %14
  %23 = load float, ptr %22, align 4
  %24 = tail call noundef float @llvm.fmuladd.f32(float %19, float %23, float %21)
  %25 = getelementptr inbounds i8, ptr %.sroa.2.019.i.i, i64 4
  %26 = load float, ptr %.sroa.2.019.i.i, align 4
  %27 = tail call float @llvm.fmuladd.f32(float %26, float %24, float %.sroa.5.020.i.i)
  %28 = add nuw i64 %.021.i.i, 1
  %exitcond.not.i.i = icmp eq i64 %28, %6
  br i1 %exitcond.not.i.i, label %_ZNK5faiss12_GLOBAL__N_110DCTemplateINS0_17QuantizerTemplateINS0_9Codec8bitELb0ELi1EEENS0_12SimilarityIPILi1EEELi1EE13query_to_codeEPKh.exit, label %13, !llvm.loop !65

_ZNK5faiss12_GLOBAL__N_110DCTemplateINS0_17QuantizerTemplateINS0_9Codec8bitELb0ELi1EEENS0_12SimilarityIPILi1EEELi1EE13query_to_codeEPKh.exit: ; preds = %13, %2
  %.sroa.5.0.lcssa.i.i = phi float [ 0.000000e+00, %2 ], [ %27, %13 ]
  %29 = fadd float %4, %.sroa.5.0.lcssa.i.i
  ret float %29
}